target datalayout = "e-m:e-p270:32:32-p271:32:32-p272:64:64-i64:64-i128:128-f80:128-n8:16:32:64-S128"
target triple = "x86_64-pc-linux-gnu"

%struct._php_stream_statbuf = type { %struct.stat }
%struct.stat = type { i64, i64, i64, i32, i32, i32, i32, i64, i64, i64, i64, %struct.timespec, %struct.timespec, %struct.timespec, [3 x i64] }
%struct.timespec = type { i64, i64 }

@.str.3 = private unnamed_addr constant [3 x i8] c"rb\00", align 1
@.str.22 = private unnamed_addr constant [3 x i8] c"wb\00", align 1
@.str.48 = private unnamed_addr constant [60 x i8] c"The first argument to copy() function cannot be a directory\00", align 1
@.str.49 = private unnamed_addr constant [61 x i8] c"The second argument to copy() function cannot be a directory\00", align 1

; Function Attrs: nounwind uwtable
define dso_local i32 @php_copy_file_ctx(ptr noundef %0, ptr noundef %1, i32 noundef %2, ptr noundef %3) #0 {
  %5 = alloca i32, align 4
  %6 = alloca ptr, align 8
  %7 = alloca ptr, align 8
  %8 = alloca i32, align 4
  %9 = alloca ptr, align 8
  %10 = alloca ptr, align 8
  %11 = alloca ptr, align 8
  %12 = alloca i32, align 4
  %13 = alloca %struct._php_stream_statbuf, align 8
  %14 = alloca %struct._php_stream_statbuf, align 8
  %15 = alloca i32, align 4
  %16 = alloca i32, align 4
  %17 = alloca ptr, align 8
  %18 = alloca ptr, align 8
  %19 = alloca i32, align 4
  store ptr %0, ptr %6, align 8, !tbaa !63
  store ptr %1, ptr %7, align 8, !tbaa !63
  store i32 %2, ptr %8, align 4, !tbaa !4
  store ptr %3, ptr %9, align 8, !tbaa !15
  call void @llvm.lifetime.start.p0(i64 8, ptr %10) #14
  store ptr null, ptr %10, align 8, !tbaa !27
  call void @llvm.lifetime.start.p0(i64 8, ptr %11) #14
  store ptr null, ptr %11, align 8, !tbaa !27
  call void @llvm.lifetime.start.p0(i64 4, ptr %12) #14
  store i32 -1, ptr %12, align 4, !tbaa !4
  call void @llvm.lifetime.start.p0(i64 144, ptr %13) #14
  call void @llvm.lifetime.start.p0(i64 144, ptr %14) #14
  call void @llvm.lifetime.start.p0(i64 4, ptr %15) #14
  %20 = load i32, ptr %8, align 4, !tbaa !4
  %21 = and i32 %20, 1024
  %22 = icmp ne i32 %21, 0
  %23 = select i1 %22, i32 4, i32 0
  store i32 %23, ptr %15, align 4, !tbaa !4
  %24 = load ptr, ptr %6, align 8, !tbaa !63
  %25 = load i32, ptr %15, align 4, !tbaa !4
  %26 = load ptr, ptr %9, align 8, !tbaa !15
  %27 = call i32 @_php_stream_stat_path(ptr noundef %24, i32 noundef %25, ptr noundef %13, ptr noundef %26)
  switch i32 %27, label %29 [
    i32 -1, label %28
    i32 0, label %31
  ]

28:                                               ; preds = %4
  br label %111

29:                                               ; preds = %4
  %30 = load i32, ptr %12, align 4, !tbaa !4
  store i32 %30, ptr %5, align 4
  store i32 1, ptr %16, align 4
  br label %141

31:                                               ; preds = %4
  %32 = getelementptr inbounds nuw %struct._php_stream_statbuf, ptr %13, i32 0, i32 0
  %33 = getelementptr inbounds nuw %struct.stat, ptr %32, i32 0, i32 3
  %34 = load i32, ptr %33, align 8, !tbaa !138
  %35 = and i32 %34, 61440
  %36 = icmp eq i32 %35, 16384
  br i1 %36, label %37, label %38

37:                                               ; preds = %31
  call void (ptr, i32, ptr, ...) @php_error_docref(ptr noundef null, i32 noundef 2, ptr noundef @.str.48)
  store i32 -1, ptr %5, align 4
  store i32 1, ptr %16, align 4
  br label %141

38:                                               ; preds = %31
  %39 = load ptr, ptr %7, align 8, !tbaa !63
  %40 = load ptr, ptr %9, align 8, !tbaa !15
  %41 = call i32 @_php_stream_stat_path(ptr noundef %39, i32 noundef 2, ptr noundef %14, ptr noundef %40)
  switch i32 %41, label %43 [
    i32 -1, label %42
    i32 0, label %45
  ]

42:                                               ; preds = %38
  br label %111

43:                                               ; preds = %38
  %44 = load i32, ptr %12, align 4, !tbaa !4
  store i32 %44, ptr %5, align 4
  store i32 1, ptr %16, align 4
  br label %141

45:                                               ; preds = %38
  %46 = getelementptr inbounds nuw %struct._php_stream_statbuf, ptr %14, i32 0, i32 0
  %47 = getelementptr inbounds nuw %struct.stat, ptr %46, i32 0, i32 3
  %48 = load i32, ptr %47, align 8, !tbaa !138
  %49 = and i32 %48, 61440
  %50 = icmp eq i32 %49, 16384
  br i1 %50, label %51, label %52

51:                                               ; preds = %45
  call void (ptr, i32, ptr, ...) @php_error_docref(ptr noundef null, i32 noundef 2, ptr noundef @.str.49)
  store i32 -1, ptr %5, align 4
  store i32 1, ptr %16, align 4
  br label %141

52:                                               ; preds = %45
  %53 = getelementptr inbounds nuw %struct._php_stream_statbuf, ptr %13, i32 0, i32 0
  %54 = getelementptr inbounds nuw %struct.stat, ptr %53, i32 0, i32 1
  %55 = load i64, ptr %54, align 8, !tbaa !137
  %56 = icmp ne i64 %55, 0
  br i1 %56, label %57, label %62

57:                                               ; preds = %52
  %58 = getelementptr inbounds nuw %struct._php_stream_statbuf, ptr %14, i32 0, i32 0
  %59 = getelementptr inbounds nuw %struct.stat, ptr %58, i32 0, i32 1
  %60 = load i64, ptr %59, align 8, !tbaa !137
  %61 = icmp ne i64 %60, 0
  br i1 %61, label %63, label %62

62:                                               ; preds = %57, %52
  br label %82

63:                                               ; preds = %57
  %64 = getelementptr inbounds nuw %struct._php_stream_statbuf, ptr %13, i32 0, i32 0
  %65 = getelementptr inbounds nuw %struct.stat, ptr %64, i32 0, i32 1
  %66 = load i64, ptr %65, align 8, !tbaa !137
  %67 = getelementptr inbounds nuw %struct._php_stream_statbuf, ptr %14, i32 0, i32 0
  %68 = getelementptr inbounds nuw %struct.stat, ptr %67, i32 0, i32 1
  %69 = load i64, ptr %68, align 8, !tbaa !137
  %70 = icmp eq i64 %66, %69
  br i1 %70, label %71, label %81

71:                                               ; preds = %63
  %72 = getelementptr inbounds nuw %struct._php_stream_statbuf, ptr %13, i32 0, i32 0
  %73 = getelementptr inbounds nuw %struct.stat, ptr %72, i32 0, i32 0
  %74 = load i64, ptr %73, align 8, !tbaa !136
  %75 = getelementptr inbounds nuw %struct._php_stream_statbuf, ptr %14, i32 0, i32 0
  %76 = getelementptr inbounds nuw %struct.stat, ptr %75, i32 0, i32 0
  %77 = load i64, ptr %76, align 8, !tbaa !136
  %78 = icmp eq i64 %74, %77
  br i1 %78, label %79, label %81

79:                                               ; preds = %71
  %80 = load i32, ptr %12, align 4, !tbaa !4
  store i32 %80, ptr %5, align 4
  store i32 1, ptr %16, align 4
  br label %141

81:                                               ; preds = %71, %63
  br label %111

82:                                               ; preds = %62
  call void @llvm.lifetime.start.p0(i64 8, ptr %17) #14
  call void @llvm.lifetime.start.p0(i64 8, ptr %18) #14
  call void @llvm.lifetime.start.p0(i64 4, ptr %19) #14
  %83 = load ptr, ptr %6, align 8, !tbaa !63
  %84 = call ptr @expand_filepath(ptr noundef %83, ptr noundef null)
  store ptr %84, ptr %17, align 8, !tbaa !63
  %85 = icmp eq ptr %84, null
  br i1 %85, label %86, label %88

86:                                               ; preds = %82
  %87 = load i32, ptr %12, align 4, !tbaa !4
  store i32 %87, ptr %5, align 4
  store i32 1, ptr %16, align 4
  br label %108

88:                                               ; preds = %82
  %89 = load ptr, ptr %7, align 8, !tbaa !63
  %90 = call ptr @expand_filepath(ptr noundef %89, ptr noundef null)
  store ptr %90, ptr %18, align 8, !tbaa !63
  %91 = icmp eq ptr %90, null
  br i1 %91, label %92, label %94

92:                                               ; preds = %88
  %93 = load ptr, ptr %17, align 8, !tbaa !63
  call void @_efree(ptr noundef %93)
  store i32 3, ptr %16, align 4
  br label %108

94:                                               ; preds = %88
  %95 = load ptr, ptr %17, align 8, !tbaa !63
  %96 = load ptr, ptr %18, align 8, !tbaa !63
  %97 = call i32 @strcmp(ptr noundef %95, ptr noundef %96) #16
  %98 = icmp ne i32 %97, 0
  %99 = xor i1 %98, true
  %100 = zext i1 %99 to i32
  store i32 %100, ptr %19, align 4, !tbaa !4
  %101 = load ptr, ptr %17, align 8, !tbaa !63
  call void @_efree(ptr noundef %101)
  %102 = load ptr, ptr %18, align 8, !tbaa !63
  call void @_efree(ptr noundef %102)
  %103 = load i32, ptr %19, align 4, !tbaa !4
  %104 = icmp ne i32 %103, 0
  br i1 %104, label %105, label %107

105:                                              ; preds = %94
  %106 = load i32, ptr %12, align 4, !tbaa !4
  store i32 %106, ptr %5, align 4
  store i32 1, ptr %16, align 4
  br label %108

107:                                              ; preds = %94
  store i32 0, ptr %16, align 4
  br label %108

108:                                              ; preds = %92, %107, %105, %86
  call void @llvm.lifetime.end.p0(i64 4, ptr %19) #14
  call void @llvm.lifetime.end.p0(i64 8, ptr %18) #14
  call void @llvm.lifetime.end.p0(i64 8, ptr %17) #14
  %109 = load i32, ptr %16, align 4
  switch i32 %109, label %141 [
    i32 0, label %110
    i32 3, label %111
  ]

110:                                              ; preds = %108
  br label %111

111:                                              ; preds = %110, %108, %81, %42, %28
  %112 = load ptr, ptr %6, align 8, !tbaa !63
  %113 = load i32, ptr %8, align 4, !tbaa !4
  %114 = or i32 %113, 8
  %115 = load ptr, ptr %9, align 8, !tbaa !15
  %116 = call ptr @_php_stream_open_wrapper_ex(ptr noundef %112, ptr noundef @.str.3, i32 noundef %114, ptr noundef null, ptr noundef %115)
  store ptr %116, ptr %10, align 8, !tbaa !27
  %117 = load ptr, ptr %10, align 8, !tbaa !27
  %118 = icmp ne ptr %117, null
  br i1 %118, label %121, label %119

119:                                              ; preds = %111
  %120 = load i32, ptr %12, align 4, !tbaa !4
  store i32 %120, ptr %5, align 4
  store i32 1, ptr %16, align 4
  br label %141

121:                                              ; preds = %111
  %122 = load ptr, ptr %7, align 8, !tbaa !63
  %123 = load ptr, ptr %9, align 8, !tbaa !15
  %124 = call ptr @_php_stream_open_wrapper_ex(ptr noundef %122, ptr noundef @.str.22, i32 noundef 8, ptr noundef null, ptr noundef %123)
  store ptr %124, ptr %11, align 8, !tbaa !27
  %125 = load ptr, ptr %11, align 8, !tbaa !27
  %126 = icmp ne ptr %125, null
  br i1 %126, label %127, label %131

127:                                              ; preds = %121
  %128 = load ptr, ptr %10, align 8, !tbaa !27
  %129 = load ptr, ptr %11, align 8, !tbaa !27
  %130 = call i32 @_php_stream_copy_to_stream_ex(ptr noundef %128, ptr noundef %129, i64 noundef -1, ptr noundef null)
  store i32 %130, ptr %12, align 4, !tbaa !4
  br label %131

131:                                              ; preds = %127, %121
  %132 = load ptr, ptr %10, align 8, !tbaa !27
  %133 = call i32 @_php_stream_free(ptr noundef %132, i32 noundef 3)
  %134 = load ptr, ptr %11, align 8, !tbaa !27
  %135 = icmp ne ptr %134, null
  br i1 %135, label %136, label %139

136:                                              ; preds = %131
  %137 = load ptr, ptr %11, align 8, !tbaa !27
  %138 = call i32 @_php_stream_free(ptr noundef %137, i32 noundef 3)
  br label %139

139:                                              ; preds = %136, %131
  %140 = load i32, ptr %12, align 4, !tbaa !4
  store i32 %140, ptr %5, align 4
  store i32 1, ptr %16, align 4
  br label %141

141:                                              ; preds = %139, %119, %108, %79, %51, %43, %37, %29
  call void @llvm.lifetime.end.p0(i64 4, ptr %15) #14
  call void @llvm.lifetime.end.p0(i64 144, ptr %14) #14
  call void @llvm.lifetime.end.p0(i64 144, ptr %13) #14
  call void @llvm.lifetime.end.p0(i64 4, ptr %12) #14
  call void @llvm.lifetime.end.p0(i64 8, ptr %11) #14
  call void @llvm.lifetime.end.p0(i64 8, ptr %10) #14
  %142 = load i32, ptr %5, align 4
  ret i32 %142
}