; Function Attrs: nounwind uwtable
define dso_local i32 @php_copy_file_ctx(ptr noundef %0, ptr noundef %1, i32 noundef %2, ptr noundef %3) local_unnamed_addr #1 {
  %5 = alloca %struct._php_stream_statbuf, align 8
  %6 = alloca %struct._php_stream_statbuf, align 8
  call void @llvm.lifetime.start.p0(i64 144, ptr nonnull %5) #18
  call void @llvm.lifetime.start.p0(i64 144, ptr nonnull %6) #18
  %7 = lshr i32 %2, 8
  %8 = and i32 %7, 4
  %9 = call i32 @_php_stream_stat_path(ptr noundef %0, i32 noundef %8, ptr noundef nonnull %5, ptr noundef %3) #18
  switch i32 %9, label %.thread [
    i32 -1, label %46
    i32 0, label %10
  ]

10:                                               ; preds = %4
  %11 = getelementptr inbounds nuw i8, ptr %5, i64 24
  %12 = load i32, ptr %11, align 8, !tbaa !126
  %13 = and i32 %12, 61440
  %14 = icmp eq i32 %13, 16384
  br i1 %14, label %15, label %16

15:                                               ; preds = %10
  call void (ptr, i32, ptr, ...) @php_error_docref(ptr noundef null, i32 noundef 2, ptr noundef nonnull @.str.48) #18
  br label %.thread

16:                                               ; preds = %10
  %17 = call i32 @_php_stream_stat_path(ptr noundef %1, i32 noundef 2, ptr noundef nonnull %6, ptr noundef %3) #18
  switch i32 %17, label %.thread [
    i32 -1, label %46
    i32 0, label %18
  ]

18:                                               ; preds = %16
  %19 = getelementptr inbounds nuw i8, ptr %6, i64 24
  %20 = load i32, ptr %19, align 8, !tbaa !126
  %21 = and i32 %20, 61440
  %22 = icmp eq i32 %21, 16384
  br i1 %22, label %23, label %24

23:                                               ; preds = %18
  call void (ptr, i32, ptr, ...) @php_error_docref(ptr noundef null, i32 noundef 2, ptr noundef nonnull @.str.49) #18
  br label %.thread

24:                                               ; preds = %18
  %25 = getelementptr inbounds nuw i8, ptr %5, i64 8
  %26 = load i64, ptr %25, align 8, !tbaa !125
  %27 = icmp ne i64 %26, 0
  %28 = getelementptr inbounds nuw i8, ptr %6, i64 8
  %29 = load i64, ptr %28, align 8
  %30 = icmp ne i64 %29, 0
  %or.cond = select i1 %27, i1 %30, i1 false
  br i1 %or.cond, label %31, label %37

31:                                               ; preds = %24
  %32 = icmp eq i64 %26, %29
  br i1 %32, label %33, label %46

33:                                               ; preds = %31
  %34 = load i64, ptr %5, align 8, !tbaa !124
  %35 = load i64, ptr %6, align 8, !tbaa !124
  %36 = icmp eq i64 %34, %35
  br i1 %36, label %.thread, label %46

37:                                               ; preds = %24
  %38 = call ptr @expand_filepath(ptr noundef %0, ptr noundef null) #18
  %39 = icmp eq ptr %38, null
  br i1 %39, label %.thread, label %40

40:                                               ; preds = %37
  %41 = call ptr @expand_filepath(ptr noundef %1, ptr noundef null) #18
  %42 = icmp eq ptr %41, null
  br i1 %42, label %43, label %44

43:                                               ; preds = %40
  call void @_efree(ptr noundef nonnull %38) #18
  br label %46

44:                                               ; preds = %40
  %45 = call i32 @strcmp(ptr noundef nonnull dereferenceable(1) %38, ptr noundef nonnull dereferenceable(1) %41) #20
  %.not = icmp eq i32 %45, 0
  call void @_efree(ptr noundef nonnull %38) #18
  call void @_efree(ptr noundef nonnull %41) #18
  br i1 %.not, label %.thread, label %46

46:                                               ; preds = %43, %44, %31, %33, %16, %4
  %47 = or i32 %2, 8
  %48 = call ptr @_php_stream_open_wrapper_ex(ptr noundef %0, ptr noundef nonnull @.str.3, i32 noundef %47, ptr noundef null, ptr noundef %3) #18
  %.not45 = icmp eq ptr %48, null
  br i1 %.not45, label %.thread, label %49

49:                                               ; preds = %46
  %50 = call ptr @_php_stream_open_wrapper_ex(ptr noundef %1, ptr noundef nonnull @.str.22, i32 noundef 8, ptr noundef null, ptr noundef %3) #18
  %.not46 = icmp eq ptr %50, null
  br i1 %.not46, label %.thread48, label %52

.thread48:                                        ; preds = %49
  %51 = call i32 @_php_stream_free(ptr noundef nonnull %48, i32 noundef 3) #18
  br label %.thread

52:                                               ; preds = %49
  %53 = call i32 @_php_stream_copy_to_stream_ex(ptr noundef nonnull %48, ptr noundef nonnull %50, i64 noundef -1, ptr noundef null) #18
  %54 = call i32 @_php_stream_free(ptr noundef nonnull %48, i32 noundef 3) #18
  %55 = call i32 @_php_stream_free(ptr noundef nonnull %50, i32 noundef 3) #18
  br label %.thread

.thread:                                          ; preds = %44, %37, %.thread48, %52, %46, %33, %16, %4, %23, %15
  %.0 = phi i32 [ -1, %15 ], [ -1, %23 ], [ -1, %4 ], [ -1, %16 ], [ -1, %33 ], [ -1, %46 ], [ %53, %52 ], [ -1, %.thread48 ], [ -1, %37 ], [ -1, %44 ]
  call void @llvm.lifetime.end.p0(i64 144, ptr nonnull %6) #18
  call void @llvm.lifetime.end.p0(i64 144, ptr nonnull %5) #18
  ret i32 %.0
}